target datalayout = "e-m:e-p270:32:32-p271:32:32-p272:64:64-i64:64-i128:128-f80:128-n8:16:32:64-S128"
target triple = "x86_64-pc-linux-gnu"

%struct._typeobject = type { %struct.PyVarObject, ptr, i64, i64, ptr, i64, ptr, ptr, ptr, ptr, ptr, ptr, ptr, ptr, ptr, ptr, ptr, ptr, ptr, i64, ptr, ptr, ptr, ptr, i64, ptr, ptr, ptr, ptr, ptr, ptr, ptr, ptr, ptr, i64, ptr, ptr, ptr, ptr, ptr, ptr, ptr, ptr, ptr, ptr, ptr, i32, ptr, ptr, i8, i16 }
%struct.PyVarObject = type { %struct._object, i64 }
%struct._object = type { %union.anon, ptr }
%union.anon = type { i64 }
%struct.PyDescrObject = type { %struct._object, ptr, ptr, ptr }
%struct.PyMemberDescrObject = type { %struct.PyDescrObject, ptr }

@.str.12 = private unnamed_addr constant [2 x i8] c"?\00", align 1
@PyExc_TypeError = external global ptr, align 8
@.str.26 = private unnamed_addr constant [72 x i8] c"descriptor '%V' for '%.100s' objects doesn't apply to a '%.100s' object\00", align 1

; Function Attrs: inlinehint nounwind uwtable
define internal i32 @PyType_HasFeature(ptr noundef %0, i64 noundef %1) #3 {
  %3 = alloca ptr, align 8
  %4 = alloca i64, align 8
  %5 = alloca i64, align 8
  store ptr %0, ptr %3, align 8, !tbaa !33
  store i64 %1, ptr %4, align 8, !tbaa !32
  call void @llvm.lifetime.start.p0(i64 8, ptr %5) #6
  %6 = load ptr, ptr %3, align 8, !tbaa !33
  %7 = getelementptr inbounds nuw %struct._typeobject, ptr %6, i32 0, i32 19
  %8 = load i64, ptr %7, align 8, !tbaa !160
  store i64 %8, ptr %5, align 8, !tbaa !32
  %9 = load i64, ptr %5, align 8, !tbaa !32
  %10 = load i64, ptr %4, align 8, !tbaa !32
  %11 = and i64 %9, %10
  %12 = icmp ne i64 %11, 0
  %13 = zext i1 %12 to i32
  call void @llvm.lifetime.end.p0(i64 8, ptr %5) #6
  ret i32 %13
}

; Function Attrs: inlinehint nounwind uwtable
define internal i32 @Py_IS_TYPE(ptr noundef %0, ptr noundef %1) #3 {
  %3 = alloca ptr, align 8
  %4 = alloca ptr, align 8
  store ptr %0, ptr %3, align 8, !tbaa !4
  store ptr %1, ptr %4, align 8, !tbaa !33
  %5 = load ptr, ptr %3, align 8, !tbaa !4
  %6 = call ptr @_Py_TYPE(ptr noundef %5)
  %7 = load ptr, ptr %4, align 8, !tbaa !33
  %8 = icmp eq ptr %6, %7
  %9 = zext i1 %8 to i32
  ret i32 %9
}

; Function Attrs: inlinehint nounwind uwtable
define internal ptr @_Py_TYPE(ptr noundef %0) #3 {
  %2 = alloca ptr, align 8
  store ptr %0, ptr %2, align 8, !tbaa !4
  %3 = load ptr, ptr %2, align 8, !tbaa !4
  %4 = getelementptr inbounds nuw %struct._object, ptr %3, i32 0, i32 1
  %5 = load ptr, ptr %4, align 8, !tbaa !64
  ret ptr %5
}

; Function Attrs: nounwind uwtable
define internal ptr @descr_name(ptr noundef %0) #0 {
  %2 = alloca ptr, align 8
  %3 = alloca ptr, align 8
  store ptr %0, ptr %3, align 8, !tbaa !9
  %4 = load ptr, ptr %3, align 8, !tbaa !9
  %5 = getelementptr inbounds nuw %struct.PyDescrObject, ptr %4, i32 0, i32 2
  %6 = load ptr, ptr %5, align 8, !tbaa !14
  %7 = icmp ne ptr %6, null
  br i1 %7, label %8, label %19

8:                                                ; preds = %1
  %9 = load ptr, ptr %3, align 8, !tbaa !9
  %10 = getelementptr inbounds nuw %struct.PyDescrObject, ptr %9, i32 0, i32 2
  %11 = load ptr, ptr %10, align 8, !tbaa !14
  %12 = call ptr @_Py_TYPE(ptr noundef %11)
  %13 = call i32 @PyType_HasFeature(ptr noundef %12, i64 noundef 268435456)
  %14 = icmp ne i32 %13, 0
  br i1 %14, label %15, label %19

15:                                               ; preds = %8
  %16 = load ptr, ptr %3, align 8, !tbaa !9
  %17 = getelementptr inbounds nuw %struct.PyDescrObject, ptr %16, i32 0, i32 2
  %18 = load ptr, ptr %17, align 8, !tbaa !14
  store ptr %18, ptr %2, align 8
  br label %20

19:                                               ; preds = %8, %1
  store ptr null, ptr %2, align 8
  br label %20

20:                                               ; preds = %19, %15
  %21 = load ptr, ptr %2, align 8
  ret ptr %21
}

; Function Attrs: inlinehint nounwind uwtable
define internal i32 @PyObject_TypeCheck(ptr noundef %0, ptr noundef %1) #3 {
  %3 = alloca ptr, align 8
  %4 = alloca ptr, align 8
  store ptr %0, ptr %3, align 8, !tbaa !4
  store ptr %1, ptr %4, align 8, !tbaa !33
  %5 = load ptr, ptr %3, align 8, !tbaa !4
  %6 = load ptr, ptr %4, align 8, !tbaa !33
  %7 = call i32 @Py_IS_TYPE(ptr noundef %5, ptr noundef %6)
  %8 = icmp ne i32 %7, 0
  br i1 %8, label %15, label %9

9:                                                ; preds = %2
  %10 = load ptr, ptr %3, align 8, !tbaa !4
  %11 = call ptr @_Py_TYPE(ptr noundef %10)
  %12 = load ptr, ptr %4, align 8, !tbaa !33
  %13 = call i32 @PyType_IsSubtype(ptr noundef %11, ptr noundef %12)
  %14 = icmp ne i32 %13, 0
  br label %15

15:                                               ; preds = %9, %2
  %16 = phi i1 [ true, %2 ], [ %14, %9 ]
  %17 = zext i1 %16 to i32
  ret i32 %17
}

; Function Attrs: nounwind uwtable
define internal i32 @descr_setcheck(ptr noundef %0, ptr noundef %1, ptr noundef %2) #0 {
  %4 = alloca i32, align 4
  %5 = alloca ptr, align 8
  %6 = alloca ptr, align 8
  %7 = alloca ptr, align 8
  store ptr %0, ptr %5, align 8, !tbaa !9
  store ptr %1, ptr %6, align 8, !tbaa !4
  store ptr %2, ptr %7, align 8, !tbaa !4
  %8 = load ptr, ptr %6, align 8, !tbaa !4
  %9 = load ptr, ptr %5, align 8, !tbaa !9
  %10 = getelementptr inbounds nuw %struct.PyDescrObject, ptr %9, i32 0, i32 1
  %11 = load ptr, ptr %10, align 8, !tbaa !10
  %12 = call i32 @PyObject_TypeCheck(ptr noundef %8, ptr noundef %11)
  %13 = icmp ne i32 %12, 0
  br i1 %13, label %28, label %14

14:                                               ; preds = %3
  %15 = load ptr, ptr @PyExc_TypeError, align 8, !tbaa !4
  %16 = load ptr, ptr %5, align 8, !tbaa !9
  %17 = call ptr @descr_name(ptr noundef %16)
  %18 = load ptr, ptr %5, align 8, !tbaa !9
  %19 = getelementptr inbounds nuw %struct.PyDescrObject, ptr %18, i32 0, i32 1
  %20 = load ptr, ptr %19, align 8, !tbaa !10
  %21 = getelementptr inbounds nuw %struct._typeobject, ptr %20, i32 0, i32 1
  %22 = load ptr, ptr %21, align 8, !tbaa !25
  %23 = load ptr, ptr %6, align 8, !tbaa !4
  %24 = call ptr @_Py_TYPE(ptr noundef %23)
  %25 = getelementptr inbounds nuw %struct._typeobject, ptr %24, i32 0, i32 1
  %26 = load ptr, ptr %25, align 8, !tbaa !25
  %27 = call ptr (ptr, ptr, ...) @PyErr_Format(ptr noundef %15, ptr noundef @.str.26, ptr noundef %17, ptr noundef @.str.12, ptr noundef %22, ptr noundef %26)
  store i32 -1, ptr %4, align 4
  br label %29

28:                                               ; preds = %3
  store i32 0, ptr %4, align 4
  br label %29

29:                                               ; preds = %28, %14
  %30 = load i32, ptr %4, align 4
  ret i32 %30
}

; Function Attrs: nounwind uwtable
define internal i32 @member_set(ptr noundef %0, ptr noundef %1, ptr noundef %2) #0 {
  %4 = alloca i32, align 4
  %5 = alloca ptr, align 8
  %6 = alloca ptr, align 8
  %7 = alloca ptr, align 8
  %8 = alloca ptr, align 8
  %9 = alloca i32, align 4
  store ptr %0, ptr %5, align 8, !tbaa !4
  store ptr %1, ptr %6, align 8, !tbaa !4
  store ptr %2, ptr %7, align 8, !tbaa !4
  call void @llvm.lifetime.start.p0(i64 8, ptr %8) #6
  %10 = load ptr, ptr %5, align 8, !tbaa !4
  store ptr %10, ptr %8, align 8, !tbaa !9
  %11 = load ptr, ptr %8, align 8, !tbaa !9
  %12 = load ptr, ptr %6, align 8, !tbaa !4
  %13 = load ptr, ptr %7, align 8, !tbaa !4
  %14 = call i32 @descr_setcheck(ptr noundef %11, ptr noundef %12, ptr noundef %13)
  %15 = icmp slt i32 %14, 0
  br i1 %15, label %16, label %17

16:                                               ; preds = %3
  store i32 -1, ptr %4, align 4
  store i32 1, ptr %9, align 4
  br label %24

17:                                               ; preds = %3
  %18 = load ptr, ptr %6, align 8, !tbaa !4
  %19 = load ptr, ptr %8, align 8, !tbaa !9
  %20 = getelementptr inbounds nuw %struct.PyMemberDescrObject, ptr %19, i32 0, i32 1
  %21 = load ptr, ptr %20, align 8, !tbaa !34
  %22 = load ptr, ptr %7, align 8, !tbaa !4
  %23 = call i32 @PyMember_SetOne(ptr noundef %18, ptr noundef %21, ptr noundef %22)
  store i32 %23, ptr %4, align 4
  store i32 1, ptr %9, align 4
  br label %24

24:                                               ; preds = %17, %16
  call void @llvm.lifetime.end.p0(i64 8, ptr %8) #6
  %25 = load i32, ptr %4, align 4
  ret i32 %25
}