; Function Attrs: nounwind uwtable
define internal i32 @member_set(ptr noundef readonly captures(none) %0, ptr noundef %1, ptr noundef %2) #0 {
  %4 = getelementptr inbounds nuw i8, ptr %0, i64 16
  %5 = load ptr, ptr %4, align 8, !tbaa !10
  %6 = getelementptr i8, ptr %1, i64 8
  %.val5.i = load ptr, ptr %6, align 8, !tbaa !19
  %.not.i.i = icmp eq ptr %.val5.i, %5
  br i1 %.not.i.i, label %21, label %PyObject_TypeCheck.exit.i

PyObject_TypeCheck.exit.i:                        ; preds = %3
  %7 = tail call i32 @PyType_IsSubtype(ptr noundef %.val5.i, ptr noundef %5) #9
  %.not2.i = icmp eq i32 %7, 0
  br i1 %.not2.i, label %8, label %21

8:                                                ; preds = %PyObject_TypeCheck.exit.i
  %9 = load ptr, ptr @PyExc_TypeError, align 8, !tbaa !30
  %10 = getelementptr i8, ptr %0, i64 24
  %.val6.i = load ptr, ptr %10, align 8, !tbaa !17
  %.not.i7.i = icmp eq ptr %.val6.i, null
  br i1 %.not.i7.i, label %descr_setcheck.exit, label %11

11:                                               ; preds = %8
  %12 = getelementptr i8, ptr %.val6.i, i64 8
  %.val.i.i = load ptr, ptr %12, align 8, !tbaa !19
  %13 = getelementptr i8, ptr %.val.i.i, i64 168
  %.val6.i.i = load i64, ptr %13, align 8, !tbaa !20
  %14 = and i64 %.val6.i.i, 268435456
  %.not5.i.i = icmp eq i64 %14, 0
  %spec.select.i.i = select i1 %.not5.i.i, ptr null, ptr %.val6.i
  br label %descr_setcheck.exit

descr_setcheck.exit:                              ; preds = %8, %11
  %.0.i.i = phi ptr [ null, %8 ], [ %spec.select.i.i, %11 ]
  %15 = load ptr, ptr %4, align 8, !tbaa !10
  %16 = getelementptr inbounds nuw i8, ptr %15, i64 24
  %17 = load ptr, ptr %16, align 8, !tbaa !29
  %.val.i = load ptr, ptr %6, align 8, !tbaa !19
  %18 = getelementptr inbounds nuw i8, ptr %.val.i, i64 24
  %19 = load ptr, ptr %18, align 8, !tbaa !29
  %20 = tail call ptr (ptr, ptr, ...) @PyErr_Format(ptr noundef %9, ptr noundef nonnull @.str.26, ptr noundef %.0.i.i, ptr noundef nonnull @.str.12, ptr noundef %17, ptr noundef %19) #9
  br label %25

21:                                               ; preds = %PyObject_TypeCheck.exit.i, %3
  %22 = getelementptr inbounds nuw i8, ptr %0, i64 40
  %23 = load ptr, ptr %22, align 8, !tbaa !37
  %24 = tail call i32 @PyMember_SetOne(ptr noundef nonnull %1, ptr noundef %23, ptr noundef %2) #9
  br label %25

25:                                               ; preds = %descr_setcheck.exit, %21
  %.0 = phi i32 [ %24, %21 ], [ -1, %descr_setcheck.exit ]
  ret i32 %.0
}